; Function Attrs: nofree nounwind uwtable
define internal noundef range(i32 0, 51) i32 @aqt_probe(ptr noundef readonly captures(none) %0) #0 {
  %2 = alloca i32, align 4
  call void @llvm.lifetime.start.p0(i64 4, ptr nonnull %2) #6
  %3 = getelementptr inbounds nuw i8, ptr %0, i64 8
  %4 = load ptr, ptr %3, align 8, !tbaa !4
  %5 = call i32 (ptr, ptr, ...) @__isoc99_sscanf(ptr noundef %4, ptr noundef nonnull @.str.8, ptr noundef nonnull %2) #6
  %6 = icmp eq i32 %5, 1
  %. = select i1 %6, i32 50, i32 0
  call void @llvm.lifetime.end.p0(i64 4, ptr nonnull %2) #6
  ret i32 %.
}